(lp0
(S'cppflags'
p1
ccopy_reg
_reconstructor
p2
(cino.utils
SpaceList
p3
c__builtin__
list
p4
(lp5
S'-mmcu=atmega328p'
p6
aS'-DF_CPU=16000000L'
p7
aS'-DARDUINO=106'
p8
aS'-I/usr/share/arduino/hardware/arduino/cores/arduino'
p9
aS'-ffunction-sections'
p10
aS'-fdata-sections'
p11
aS'-g'
p12
aS'-Os'
p13
aS'-w'
p14
aS'-I/usr/share/arduino/hardware/arduino/variants/standard'
p15
aS'-I/usr/share/arduino/libraries/Servo'
p16
aS'-I/usr/share/arduino/libraries/Wire'
p17
aS'-I/usr/share/arduino/libraries/Wire/utility'
p18
aS'-I/usr/share/arduino/hardware/arduino/cores/arduino'
p19
aS'-I/usr/share/arduino/hardware/arduino/cores/arduino/avr-libc'
p20
atp21
Rp22
tp23
a(S'arduino_variants_dir'
p24
S'/usr/share/arduino/hardware/arduino/variants'
p25
tp26
a(S'version.txt'
p27
S'/usr/share/arduino/lib/version.txt'
p28
tp29
a(S'used_libs'
p30
(lp31
S'/usr/share/arduino/libraries/Servo'
p32
aS'/usr/share/arduino/libraries/Wire'
p33
aS'/usr/share/arduino/hardware/arduino/cores/arduino'
p34
atp35
a(S'cxx'
p36
S'/usr/share/arduino/hardware/tools/avr/bin/avr-g++'
p37
tp38
a(S'make'
p39
S'/usr/bin/make'
p40
tp41
a(S'build_dir'
p42
S'.build/uno'
p43
tp44
a(S'arduino_core_dir'
p45
g34
tp46
a(S'boards.txt'
p47
S'/usr/share/arduino/hardware/arduino/boards.txt'
p48
tp49
a(S'cxxflags'
p50
g2
(g3
g4
(lp51
S'-fno-exceptions'
p52
atp53
Rp54
tp55
a(S'cc'
p56
S'/usr/share/arduino/hardware/tools/avr/bin/avr-gcc'
p57
tp58
a(S'deps'
p59
g2
(g3
g4
(lp60
S'.build/uno/src/dependencies.d'
p61
aS'.build/uno/arduino/dependencies.d'
p62
aS'.build/uno/Servo/dependencies.d'
p63
aS'.build/uno/Wire/dependencies.d'
p64
atp65
Rp66
tp67
a(S'ar'
p68
S'/usr/share/arduino/hardware/tools/avr/bin/avr-ar'
p69
tp70
a(S'names'
p71
(dp72
S'cpp'
p73
S'%s.cpp'
p74
sS'obj'
p75
S'%s.o'
p76
sS'deps'
p77
S'%s.d'
p78
sS'lib'
p79
S'lib%s.a'
p80
stp81
a(S'cflags'
p82
g2
(g3
g4
(lp83
tp84
Rp85
tp86
a(S'arduino_libraries_dir'
p87
S'/usr/share/arduino/libraries'
p88
tp89
a(S'arduino_lib_version'
p90
g2
(cino.environment
Version
p91
c__builtin__
tuple
p92
(I1
I0
I6
tp93
tp94
Rp95
tp96
a(S'objcopy'
p97
S'/usr/share/arduino/hardware/tools/avr/bin/avr-objcopy'
p98
tp99
a(S'board_models'
p100
cino.environment
BoardModels
p101
((lp102
(lp103
S'uno'
p104
a(dp105
S'bootloader'
p106
(dp107
S'extended_fuses'
p108
S'0x05'
p109
sS'high_fuses'
p110
S'0xde'
p111
sS'low_fuses'
p112
S'0xff'
p113
sS'lock_bits'
p114
S'0x0F'
p115
sS'file'
p116
S'optiboot_atmega328.hex'
p117
sS'path'
p118
S'optiboot'
p119
sS'unlock_bits'
p120
S'0x3F'
p121
ssS'upload'
p122
(dp123
S'speed'
p124
S'115200'
p125
sS'maximum_size'
p126
S'32256'
p127
sS'protocol'
p128
S'arduino'
p129
ssS'name'
p130
S'Arduino Uno'
p131
sS'build'
p132
(dp133
S'core'
p134
S'arduino'
p135
sS'mcu'
p136
S'atmega328p'
p137
sS'f_cpu'
p138
S'16000000L'
p139
sS'variant'
p140
S'standard'
p141
ssaa(lp142
S'atmega328'
p143
a(dp144
S'bootloader'
p145
(dp146
S'extended_fuses'
p147
S'0x05'
p148
sS'high_fuses'
p149
S'0xDA'
p150
sS'low_fuses'
p151
S'0xFF'
p152
sS'lock_bits'
p153
S'0x0F'
p154
sS'file'
p155
S'ATmegaBOOT_168_atmega328.hex'
p156
sS'path'
p157
S'atmega'
p158
sS'unlock_bits'
p159
S'0x3F'
p160
ssS'upload'
p161
(dp162
S'speed'
p163
S'57600'
p164
sS'maximum_size'
p165
S'30720'
p166
sS'protocol'
p167
S'arduino'
p168
ssS'name'
p169
S'Arduino Duemilanove w/ ATmega328'
p170
sS'build'
p171
(dp172
S'core'
p173
S'arduino'
p174
sS'mcu'
p175
S'atmega328p'
p176
sS'f_cpu'
p177
S'16000000L'
p178
sS'variant'
p179
S'standard'
p180
ssaa(lp181
S'diecimila'
p182
a(dp183
S'bootloader'
p184
(dp185
S'extended_fuses'
p186
S'0x00'
p187
sS'high_fuses'
p188
S'0xdd'
p189
sS'low_fuses'
p190
S'0xff'
p191
sS'lock_bits'
p192
S'0x0F'
p193
sS'file'
p194
S'ATmegaBOOT_168_diecimila.hex'
p195
sS'path'
p196
S'atmega'
p197
sS'unlock_bits'
p198
S'0x3F'
p199
ssS'upload'
p200
(dp201
S'speed'
p202
S'19200'
p203
sS'maximum_size'
p204
S'14336'
p205
sS'protocol'
p206
S'arduino'
p207
ssS'name'
p208
S'Arduino Diecimila or Duemilanove w/ ATmega168'
p209
sS'build'
p210
(dp211
S'core'
p212
S'arduino'
p213
sS'mcu'
p214
S'atmega168'
p215
sS'f_cpu'
p216
S'16000000L'
p217
sS'variant'
p218
S'standard'
p219
ssaa(lp220
S'nano328'
p221
a(dp222
S'bootloader'
p223
(dp224
S'extended_fuses'
p225
S'0x05'
p226
sS'high_fuses'
p227
S'0xDA'
p228
sS'low_fuses'
p229
S'0xFF'
p230
sS'lock_bits'
p231
S'0x0F'
p232
sS'file'
p233
S'ATmegaBOOT_168_atmega328.hex'
p234
sS'path'
p235
S'atmega'
p236
sS'unlock_bits'
p237
S'0x3F'
p238
ssS'upload'
p239
(dp240
S'speed'
p241
S'57600'
p242
sS'maximum_size'
p243
S'30720'
p244
sS'protocol'
p245
S'arduino'
p246
ssS'name'
p247
S'Arduino Nano w/ ATmega328'
p248
sS'build'
p249
(dp250
S'core'
p251
S'arduino'
p252
sS'mcu'
p253
S'atmega328p'
p254
sS'f_cpu'
p255
S'16000000L'
p256
sS'variant'
p257
S'eightanaloginputs'
p258
ssaa(lp259
S'nano'
p260
a(dp261
S'bootloader'
p262
(dp263
S'extended_fuses'
p264
S'0x00'
p265
sS'high_fuses'
p266
S'0xdd'
p267
sS'low_fuses'
p268
S'0xff'
p269
sS'lock_bits'
p270
S'0x0F'
p271
sS'file'
p272
S'ATmegaBOOT_168_diecimila.hex'
p273
sS'path'
p274
S'atmega'
p275
sS'unlock_bits'
p276
S'0x3F'
p277
ssS'upload'
p278
(dp279
S'speed'
p280
S'19200'
p281
sS'maximum_size'
p282
S'14336'
p283
sS'protocol'
p284
S'arduino'
p285
ssS'name'
p286
S'Arduino Nano w/ ATmega168'
p287
sS'build'
p288
(dp289
S'core'
p290
S'arduino'
p291
sS'mcu'
p292
S'atmega168'
p293
sS'f_cpu'
p294
S'16000000L'
p295
sS'variant'
p296
S'eightanaloginputs'
p297
ssaa(lp298
S'mega2560'
p299
a(dp300
S'bootloader'
p301
(dp302
S'extended_fuses'
p303
S'0xFD'
p304
sS'high_fuses'
p305
S'0xD8'
p306
sS'low_fuses'
p307
S'0xFF'
p308
sS'lock_bits'
p309
S'0x0F'
p310
sS'file'
p311
S'stk500boot_v2_mega2560.hex'
p312
sS'path'
p313
S'stk500v2'
p314
sS'unlock_bits'
p315
S'0x3F'
p316
ssS'upload'
p317
(dp318
S'speed'
p319
S'115200'
p320
sS'maximum_size'
p321
S'258048'
p322
sS'protocol'
p323
S'wiring'
p324
ssS'name'
p325
S'Arduino Mega 2560 or Mega ADK'
p326
sS'build'
p327
(dp328
S'core'
p329
S'arduino'
p330
sS'mcu'
p331
S'atmega2560'
p332
sS'f_cpu'
p333
S'16000000L'
p334
sS'variant'
p335
S'mega'
p336
ssaa(lp337
S'mega'
p338
a(dp339
S'bootloader'
p340
(dp341
S'extended_fuses'
p342
S'0xF5'
p343
sS'high_fuses'
p344
S'0xDA'
p345
sS'low_fuses'
p346
S'0xFF'
p347
sS'lock_bits'
p348
S'0x0F'
p349
sS'file'
p350
S'ATmegaBOOT_168_atmega1280.hex'
p351
sS'path'
p352
S'atmega'
p353
sS'unlock_bits'
p354
S'0x3F'
p355
ssS'upload'
p356
(dp357
S'speed'
p358
S'57600'
p359
sS'maximum_size'
p360
S'126976'
p361
sS'protocol'
p362
S'arduino'
p363
ssS'name'
p364
S'Arduino Mega (ATmega1280)'
p365
sS'build'
p366
(dp367
S'core'
p368
S'arduino'
p369
sS'mcu'
p370
S'atmega1280'
p371
sS'f_cpu'
p372
S'16000000L'
p373
sS'variant'
p374
S'mega'
p375
ssaa(lp376
S'leonardo'
p377
a(dp378
S'bootloader'
p379
(dp380
S'extended_fuses'
p381
S'0xcb'
p382
sS'high_fuses'
p383
S'0xd8'
p384
sS'low_fuses'
p385
S'0xff'
p386
sS'lock_bits'
p387
S'0x2F'
p388
sS'file'
p389
S'Caterina-Leonardo.hex'
p390
sS'path'
p391
S'caterina'
p392
sS'unlock_bits'
p393
S'0x3F'
p394
ssS'upload'
p395
(dp396
S'speed'
p397
S'57600'
p398
sS'maximum_size'
p399
S'28672'
p400
sS'protocol'
p401
S'avr109'
p402
sS'disable_flushing'
p403
S'true'
p404
ssS'name'
p405
S'Arduino Leonardo'
p406
sS'build'
p407
(dp408
S'core'
p409
S'arduino'
p410
sS'f_cpu'
p411
S'16000000L'
p412
sS'vid'
p413
S'0x2341'
p414
sS'pid'
p415
S'0x8036'
p416
sS'variant'
p417
S'leonardo'
p418
sS'mcu'
p419
S'atmega32u4'
p420
ssaa(lp421
S'esplora'
p422
a(dp423
S'bootloader'
p424
(dp425
S'extended_fuses'
p426
S'0xcb'
p427
sS'high_fuses'
p428
S'0xd8'
p429
sS'low_fuses'
p430
S'0xff'
p431
sS'lock_bits'
p432
S'0x2F'
p433
sS'file'
p434
S'Caterina-Esplora.hex'
p435
sS'path'
p436
S'caterina'
p437
sS'unlock_bits'
p438
S'0x3F'
p439
ssS'upload'
p440
(dp441
S'speed'
p442
S'57600'
p443
sS'maximum_size'
p444
S'28672'
p445
sS'protocol'
p446
S'avr109'
p447
sS'disable_flushing'
p448
S'true'
p449
ssS'name'
p450
S'Arduino Esplora'
p451
sS'build'
p452
(dp453
S'core'
p454
S'arduino'
p455
sS'f_cpu'
p456
S'16000000L'
p457
sS'vid'
p458
S'0x2341'
p459
sS'pid'
p460
S'0x803C'
p461
sS'variant'
p462
S'leonardo'
p463
sS'mcu'
p464
S'atmega32u4'
p465
ssaa(lp466
S'micro'
p467
a(dp468
S'bootloader'
p469
(dp470
S'extended_fuses'
p471
S'0xcb'
p472
sS'high_fuses'
p473
S'0xd8'
p474
sS'low_fuses'
p475
S'0xff'
p476
sS'lock_bits'
p477
S'0x2F'
p478
sS'file'
p479
S'Caterina-Micro.hex'
p480
sS'path'
p481
S'caterina'
p482
sS'unlock_bits'
p483
S'0x3F'
p484
ssS'upload'
p485
(dp486
S'speed'
p487
S'57600'
p488
sS'maximum_size'
p489
S'28672'
p490
sS'protocol'
p491
S'avr109'
p492
sS'disable_flushing'
p493
S'true'
p494
ssS'name'
p495
S'Arduino Micro'
p496
sS'build'
p497
(dp498
S'core'
p499
S'arduino'
p500
sS'f_cpu'
p501
S'16000000L'
p502
sS'vid'
p503
S'0x2341'
p504
sS'pid'
p505
S'0x8037'
p506
sS'variant'
p507
S'micro'
p508
sS'mcu'
p509
S'atmega32u4'
p510
ssaa(lp511
S'mini328'
p512
a(dp513
S'bootloader'
p514
(dp515
S'extended_fuses'
p516
S'0x05'
p517
sS'high_fuses'
p518
S'0xd8'
p519
sS'low_fuses'
p520
S'0xff'
p521
sS'lock_bits'
p522
S'0x0F'
p523
sS'file'
p524
S'optiboot_atmega328-Mini.hex'
p525
sS'path'
p526
S'optiboot'
p527
sS'unlock_bits'
p528
S'0x3F'
p529
ssS'upload'
p530
(dp531
S'speed'
p532
S'115200'
p533
sS'maximum_size'
p534
S'28672'
p535
sS'protocol'
p536
S'arduino'
p537
ssS'name'
p538
S'Arduino Mini w/ ATmega328'
p539
sS'build'
p540
(dp541
S'core'
p542
S'arduino'
p543
sS'mcu'
p544
S'atmega328p'
p545
sS'f_cpu'
p546
S'16000000L'
p547
sS'variant'
p548
S'eightanaloginputs'
p549
ssaa(lp550
S'mini'
p551
a(dp552
S'bootloader'
p553
(dp554
S'extended_fuses'
p555
S'0x00'
p556
sS'high_fuses'
p557
S'0xdd'
p558
sS'low_fuses'
p559
S'0xff'
p560
sS'lock_bits'
p561
S'0x0F'
p562
sS'file'
p563
S'ATmegaBOOT_168_ng.hex'
p564
sS'path'
p565
S'atmega'
p566
sS'unlock_bits'
p567
S'0x3F'
p568
ssS'upload'
p569
(dp570
S'speed'
p571
S'19200'
p572
sS'maximum_size'
p573
S'14336'
p574
sS'protocol'
p575
S'arduino'
p576
ssS'name'
p577
S'Arduino Mini w/ ATmega168'
p578
sS'build'
p579
(dp580
S'core'
p581
S'arduino'
p582
sS'mcu'
p583
S'atmega168'
p584
sS'f_cpu'
p585
S'16000000L'
p586
sS'variant'
p587
S'eightanaloginputs'
p588
ssaa(lp589
S'ethernet'
p590
a(dp591
S'bootloader'
p592
(dp593
S'extended_fuses'
p594
S'0x05'
p595
sS'high_fuses'
p596
S'0xde'
p597
sS'low_fuses'
p598
S'0xff'
p599
sS'lock_bits'
p600
S'0x0F'
p601
sS'file'
p602
S'optiboot_atmega328.hex'
p603
sS'path'
p604
S'optiboot'
p605
sS'unlock_bits'
p606
S'0x3F'
p607
ssS'upload'
p608
(dp609
S'speed'
p610
S'115200'
p611
sS'maximum_size'
p612
S'32256'
p613
sS'protocol'
p614
S'arduino'
p615
ssS'name'
p616
S'Arduino Ethernet'
p617
sS'build'
p618
(dp619
S'f_cpu'
p620
S'16000000L'
p621
sS'mcu'
p622
S'atmega328p'
p623
sS'variant'
p624
S'ethernet'
p625
sS'core'
p626
S'arduino'
p627
ssaa(lp628
S'fio'
p629
a(dp630
S'bootloader'
p631
(dp632
S'extended_fuses'
p633
S'0x05'
p634
sS'high_fuses'
p635
S'0xDA'
p636
sS'low_fuses'
p637
S'0xFF'
p638
sS'lock_bits'
p639
S'0x0F'
p640
sS'file'
p641
S'ATmegaBOOT_168_atmega328_pro_8MHz.hex'
p642
sS'path'
p643
S'arduino:atmega'
p644
sS'unlock_bits'
p645
S'0x3F'
p646
ssS'upload'
p647
(dp648
S'speed'
p649
S'57600'
p650
sS'maximum_size'
p651
S'30720'
p652
sS'protocol'
p653
S'arduino'
p654
ssS'name'
p655
S'Arduino Fio'
p656
sS'build'
p657
(dp658
S'core'
p659
S'arduino'
p660
sS'mcu'
p661
S'atmega328p'
p662
sS'f_cpu'
p663
S'8000000L'
p664
sS'variant'
p665
S'eightanaloginputs'
p666
ssaa(lp667
S'bt328'
p668
a(dp669
S'bootloader'
p670
(dp671
S'extended_fuses'
p672
S'0x05'
p673
sS'high_fuses'
p674
S'0xd8'
p675
sS'low_fuses'
p676
S'0xff'
p677
sS'lock_bits'
p678
S'0x0F'
p679
sS'file'
p680
S'ATmegaBOOT_168_atmega328_bt.hex'
p681
sS'path'
p682
S'bt'
p683
sS'unlock_bits'
p684
S'0x3F'
p685
ssS'upload'
p686
(dp687
S'speed'
p688
S'19200'
p689
sS'maximum_size'
p690
S'28672'
p691
sS'protocol'
p692
S'arduino'
p693
sS'disable_flushing'
p694
S'true'
p695
ssS'name'
p696
S'Arduino BT w/ ATmega328'
p697
sS'build'
p698
(dp699
S'core'
p700
S'arduino'
p701
sS'mcu'
p702
S'atmega328p'
p703
sS'f_cpu'
p704
S'16000000L'
p705
sS'variant'
p706
S'eightanaloginputs'
p707
ssaa(lp708
S'bt'
p709
a(dp710
S'bootloader'
p711
(dp712
S'extended_fuses'
p713
S'0x00'
p714
sS'high_fuses'
p715
S'0xdd'
p716
sS'low_fuses'
p717
S'0xff'
p718
sS'lock_bits'
p719
S'0x0F'
p720
sS'file'
p721
S'ATmegaBOOT_168.hex'
p722
sS'path'
p723
S'bt'
p724
sS'unlock_bits'
p725
S'0x3F'
p726
ssS'upload'
p727
(dp728
S'speed'
p729
S'19200'
p730
sS'maximum_size'
p731
S'14336'
p732
sS'protocol'
p733
S'arduino'
p734
sS'disable_flushing'
p735
S'true'
p736
ssS'name'
p737
S'Arduino BT w/ ATmega168'
p738
sS'build'
p739
(dp740
S'core'
p741
S'arduino'
p742
sS'mcu'
p743
S'atmega168'
p744
sS'f_cpu'
p745
S'16000000L'
p746
sS'variant'
p747
S'eightanaloginputs'
p748
ssaa(lp749
S'LilyPadUSB'
p750
a(dp751
S'bootloader'
p752
(dp753
S'extended_fuses'
p754
S'0xce'
p755
sS'high_fuses'
p756
S'0xd8'
p757
sS'low_fuses'
p758
S'0xff'
p759
sS'lock_bits'
p760
S'0x2F'
p761
sS'file'
p762
S'Caterina-LilyPadUSB.hex'
p763
sS'path'
p764
S'caterina-LilyPadUSB'
p765
sS'unlock_bits'
p766
S'0x3F'
p767
ssS'upload'
p768
(dp769
S'speed'
p770
S'57600'
p771
sS'maximum_size'
p772
S'28672'
p773
sS'protocol'
p774
S'avr109'
p775
sS'disable_flushing'
p776
S'true'
p777
ssS'name'
p778
S'LilyPad Arduino USB'
p779
sS'build'
p780
(dp781
S'core'
p782
S'arduino'
p783
sS'f_cpu'
p784
S'8000000L'
p785
sS'vid'
p786
S'0x1B4F'
p787
sS'pid'
p788
S'0x9208'
p789
sS'variant'
p790
S'leonardo'
p791
sS'mcu'
p792
S'atmega32u4'
p793
ssaa(lp794
S'lilypad328'
p795
a(dp796
S'bootloader'
p797
(dp798
S'extended_fuses'
p799
S'0x05'
p800
sS'high_fuses'
p801
S'0xDA'
p802
sS'low_fuses'
p803
S'0xFF'
p804
sS'lock_bits'
p805
S'0x0F'
p806
sS'file'
p807
S'ATmegaBOOT_168_atmega328_pro_8MHz.hex'
p808
sS'path'
p809
S'atmega'
p810
sS'unlock_bits'
p811
S'0x3F'
p812
ssS'upload'
p813
(dp814
S'speed'
p815
S'57600'
p816
sS'maximum_size'
p817
S'30720'
p818
sS'protocol'
p819
S'arduino'
p820
ssS'name'
p821
S'LilyPad Arduino w/ ATmega328'
p822
sS'build'
p823
(dp824
S'core'
p825
S'arduino'
p826
sS'mcu'
p827
S'atmega328p'
p828
sS'f_cpu'
p829
S'8000000L'
p830
sS'variant'
p831
S'standard'
p832
ssaa(lp833
S'lilypad'
p834
a(dp835
S'bootloader'
p836
(dp837
S'extended_fuses'
p838
S'0x00'
p839
sS'high_fuses'
p840
S'0xdd'
p841
sS'low_fuses'
p842
S'0xe2'
p843
sS'lock_bits'
p844
S'0x0F'
p845
sS'file'
p846
S'LilyPadBOOT_168.hex'
p847
sS'path'
p848
S'lilypad'
p849
sS'unlock_bits'
p850
S'0x3F'
p851
ssS'upload'
p852
(dp853
S'speed'
p854
S'19200'
p855
sS'maximum_size'
p856
S'14336'
p857
sS'protocol'
p858
S'arduino'
p859
ssS'name'
p860
S'LilyPad Arduino w/ ATmega168'
p861
sS'build'
p862
(dp863
S'core'
p864
S'arduino'
p865
sS'mcu'
p866
S'atmega168'
p867
sS'f_cpu'
p868
S'8000000L'
p869
sS'variant'
p870
S'standard'
p871
ssaa(lp872
S'pro5v328'
p873
a(dp874
S'bootloader'
p875
(dp876
S'extended_fuses'
p877
S'0x05'
p878
sS'high_fuses'
p879
S'0xDA'
p880
sS'low_fuses'
p881
S'0xFF'
p882
sS'lock_bits'
p883
S'0x0F'
p884
sS'file'
p885
S'ATmegaBOOT_168_atmega328.hex'
p886
sS'path'
p887
S'atmega'
p888
sS'unlock_bits'
p889
S'0x3F'
p890
ssS'upload'
p891
(dp892
S'speed'
p893
S'57600'
p894
sS'maximum_size'
p895
S'30720'
p896
sS'protocol'
p897
S'arduino'
p898
ssS'name'
p899
S'Arduino Pro or Pro Mini (5V, 16 MHz) w/ ATmega328'
p900
sS'build'
p901
(dp902
S'core'
p903
S'arduino'
p904
sS'mcu'
p905
S'atmega328p'
p906
sS'f_cpu'
p907
S'16000000L'
p908
sS'variant'
p909
S'standard'
p910
ssaa(lp911
S'pro5v'
p912
a(dp913
S'bootloader'
p914
(dp915
S'extended_fuses'
p916
S'0x00'
p917
sS'high_fuses'
p918
S'0xdd'
p919
sS'low_fuses'
p920
S'0xff'
p921
sS'lock_bits'
p922
S'0x0F'
p923
sS'file'
p924
S'ATmegaBOOT_168_diecimila.hex'
p925
sS'path'
p926
S'atmega'
p927
sS'unlock_bits'
p928
S'0x3F'
p929
ssS'upload'
p930
(dp931
S'speed'
p932
S'19200'
p933
sS'maximum_size'
p934
S'14336'
p935
sS'protocol'
p936
S'arduino'
p937
ssS'name'
p938
S'Arduino Pro or Pro Mini (5V, 16 MHz) w/ ATmega168'
p939
sS'build'
p940
(dp941
S'core'
p942
S'arduino'
p943
sS'mcu'
p944
S'atmega168'
p945
sS'f_cpu'
p946
S'16000000L'
p947
sS'variant'
p948
S'standard'
p949
ssaa(lp950
S'pro328'
p951
a(dp952
S'bootloader'
p953
(dp954
S'extended_fuses'
p955
S'0x05'
p956
sS'high_fuses'
p957
S'0xDA'
p958
sS'low_fuses'
p959
S'0xFF'
p960
sS'lock_bits'
p961
S'0x0F'
p962
sS'file'
p963
S'ATmegaBOOT_168_atmega328_pro_8MHz.hex'
p964
sS'path'
p965
S'atmega'
p966
sS'unlock_bits'
p967
S'0x3F'
p968
ssS'upload'
p969
(dp970
S'speed'
p971
S'57600'
p972
sS'maximum_size'
p973
S'30720'
p974
sS'protocol'
p975
S'arduino'
p976
ssS'name'
p977
S'Arduino Pro or Pro Mini (3.3V, 8 MHz) w/ ATmega328'
p978
sS'build'
p979
(dp980
S'core'
p981
S'arduino'
p982
sS'mcu'
p983
S'atmega328p'
p984
sS'f_cpu'
p985
S'8000000L'
p986
sS'variant'
p987
S'standard'
p988
ssaa(lp989
S'pro'
p990
a(dp991
S'bootloader'
p992
(dp993
S'extended_fuses'
p994
S'0x00'
p995
sS'high_fuses'
p996
S'0xdd'
p997
sS'low_fuses'
p998
S'0xc6'
p999
sS'lock_bits'
p1000
S'0x0F'
p1001
sS'file'
p1002
S'ATmegaBOOT_168_pro_8MHz.hex'
p1003
sS'path'
p1004
S'atmega'
p1005
sS'unlock_bits'
p1006
S'0x3F'
p1007
ssS'upload'
p1008
(dp1009
S'speed'
p1010
S'19200'
p1011
sS'maximum_size'
p1012
S'14336'
p1013
sS'protocol'
p1014
S'arduino'
p1015
ssS'name'
p1016
S'Arduino Pro or Pro Mini (3.3V, 8 MHz) w/ ATmega168'
p1017
sS'build'
p1018
(dp1019
S'core'
p1020
S'arduino'
p1021
sS'mcu'
p1022
S'atmega168'
p1023
sS'f_cpu'
p1024
S'8000000L'
p1025
sS'variant'
p1026
S'standard'
p1027
ssaa(lp1028
S'atmega168'
p1029
a(dp1030
S'bootloader'
p1031
(dp1032
S'extended_fuses'
p1033
S'0x00'
p1034
sS'high_fuses'
p1035
S'0xdd'
p1036
sS'low_fuses'
p1037
S'0xff'
p1038
sS'lock_bits'
p1039
S'0x0F'
p1040
sS'file'
p1041
S'ATmegaBOOT_168_ng.hex'
p1042
sS'path'
p1043
S'atmega'
p1044
sS'unlock_bits'
p1045
S'0x3F'
p1046
ssS'upload'
p1047
(dp1048
S'speed'
p1049
S'19200'
p1050
sS'maximum_size'
p1051
S'14336'
p1052
sS'protocol'
p1053
S'arduino'
p1054
ssS'name'
p1055
S'Arduino NG or older w/ ATmega168'
p1056
sS'build'
p1057
(dp1058
S'core'
p1059
S'arduino'
p1060
sS'mcu'
p1061
S'atmega168'
p1062
sS'f_cpu'
p1063
S'16000000L'
p1064
sS'variant'
p1065
S'standard'
p1066
ssaa(lp1067
S'atmega8'
p1068
a(dp1069
S'bootloader'
p1070
(dp1071
S'high_fuses'
p1072
S'0xca'
p1073
sS'low_fuses'
p1074
S'0xdf'
p1075
sS'lock_bits'
p1076
S'0x0F'
p1077
sS'file'
p1078
S'ATmegaBOOT-prod-firmware-2009-11-07.hex'
p1079
sS'path'
p1080
S'atmega8'
p1081
sS'unlock_bits'
p1082
S'0x3F'
p1083
ssS'upload'
p1084
(dp1085
S'speed'
p1086
S'19200'
p1087
sS'maximum_size'
p1088
S'7168'
p1089
sS'protocol'
p1090
S'arduino'
p1091
ssS'name'
p1092
S'Arduino NG or older w/ ATmega8'
p1093
sS'build'
p1094
(dp1095
S'core'
p1096
S'arduino'
p1097
sS'mcu'
p1098
S'atmega8'
p1099
sS'f_cpu'
p1100
S'16000000L'
p1101
sS'variant'
p1102
S'standard'
p1103
ssaa(lp1104
S'robotControl'
p1105
a(dp1106
S'bootloader'
p1107
(dp1108
S'extended_fuses'
p1109
S'0xcb'
p1110
sS'high_fuses'
p1111
S'0xd8'
p1112
sS'low_fuses'
p1113
S'0xff'
p1114
sS'lock_bits'
p1115
S'0x2F'
p1116
sS'file'
p1117
S'Caterina-Robot-Control.hex'
p1118
sS'path'
p1119
S'caterina-Arduino_Robot'
p1120
sS'unlock_bits'
p1121
S'0x3F'
p1122
ssS'upload'
p1123
(dp1124
S'speed'
p1125
S'57600'
p1126
sS'maximum_size'
p1127
S'28672'
p1128
sS'protocol'
p1129
S'avr109'
p1130
sS'disable_flushing'
p1131
S'true'
p1132
ssS'name'
p1133
S'Arduino Robot Control'
p1134
sS'build'
p1135
(dp1136
S'core'
p1137
S'robot'
p1138
sS'f_cpu'
p1139
S'16000000L'
p1140
sS'vid'
p1141
S'0x2341'
p1142
sS'pid'
p1143
S'0x8038'
p1144
sS'variant'
p1145
S'robot_control'
p1146
sS'mcu'
p1147
S'atmega32u4'
p1148
ssaa(lp1149
S'robotMotor'
p1150
a(dp1151
S'bootloader'
p1152
(dp1153
S'extended_fuses'
p1154
S'0xcb'
p1155
sS'high_fuses'
p1156
S'0xd8'
p1157
sS'low_fuses'
p1158
S'0xff'
p1159
sS'lock_bits'
p1160
S'0x2F'
p1161
sS'file'
p1162
S'Caterina-Robot-Motor.hex'
p1163
sS'path'
p1164
S'caterina-Arduino_Robot'
p1165
sS'unlock_bits'
p1166
S'0x3F'
p1167
ssS'upload'
p1168
(dp1169
S'speed'
p1170
S'57600'
p1171
sS'maximum_size'
p1172
S'28672'
p1173
sS'protocol'
p1174
S'avr109'
p1175
sS'disable_flushing'
p1176
S'true'
p1177
ssS'name'
p1178
S'Arduino Robot Motor'
p1179
sS'build'
p1180
(dp1181
S'core'
p1182
S'robot'
p1183
sS'f_cpu'
p1184
S'16000000L'
p1185
sS'vid'
p1186
S'0x2341'
p1187
sS'pid'
p1188
S'0x8039'
p1189
sS'variant'
p1190
S'robot_motor'
p1191
sS'mcu'
p1192
S'atmega32u4'
p1193
ssaatp1194
Rp1195
(dp1196
S'default'
p1197
S'uno'
p1198
sbtp1199
a(S'ldflags'
p1200
g2
(g3
g4
(lp1201
g6
aS'-Wl,-Os'
p1202
aS'-Wl,--gc-sections'
p1203
atp1204
Rp1205
tp1206
a.